; Function Attrs: nounwind uwtable
define noalias nonnull ptr @l___private_Lean_Meta_Tactic_Grind_EMatchTheorem_0__Lean_Meta_Grind_detectOffsets___lambda__3___boxed(ptr noundef %0, ptr noundef %1, ptr noundef %2, ptr noundef %3, ptr noundef %4, ptr noundef %5) #1 {
  tail call void @lean_inc_heartbeat() #9
  %7 = tail call noalias ptr @mi_malloc_small(i64 noundef 16) #9
  %8 = icmp eq ptr %7, null
  br i1 %8, label %9, label %lean_alloc_ctor.exit.i

9:                                                ; preds = %6
  tail call void @lean_internal_panic_out_of_memory() #10
  unreachable

lean_alloc_ctor.exit.i:                           ; preds = %6
  %10 = getelementptr inbounds nuw i8, ptr %7, i64 4
  store i32 1, ptr %7, align 4, !tbaa !4
  store i32 65552, ptr %10, align 4
  %11 = getelementptr inbounds nuw i8, ptr %7, i64 8
  store ptr %0, ptr %11, align 8, !tbaa !9
  tail call void @lean_inc_heartbeat() #9
  %12 = tail call noalias ptr @mi_malloc_small(i64 noundef 24) #9
  %13 = icmp eq ptr %12, null
  br i1 %13, label %14, label %l___private_Lean_Meta_Tactic_Grind_EMatchTheorem_0__Lean_Meta_Grind_detectOffsets___lambda__3.exit

14:                                               ; preds = %lean_alloc_ctor.exit.i
  tail call void @lean_internal_panic_out_of_memory() #10
  unreachable

l___private_Lean_Meta_Tactic_Grind_EMatchTheorem_0__Lean_Meta_Grind_detectOffsets___lambda__3.exit: ; preds = %lean_alloc_ctor.exit.i
  %15 = getelementptr inbounds nuw i8, ptr %12, i64 4
  store i32 1, ptr %12, align 4, !tbaa !4
  store i32 131096, ptr %15, align 4
  %16 = getelementptr inbounds nuw i8, ptr %12, i64 8
  store ptr %7, ptr %16, align 8, !tbaa !9
  %17 = getelementptr inbounds nuw i8, ptr %12, i64 16
  store ptr %5, ptr %17, align 8, !tbaa !9
  %18 = ptrtoint ptr %4 to i64
  %19 = and i64 %18, 1
  %.not = icmp eq i64 %19, 0
  br i1 %.not, label %20, label %lean_dec.exit13

20:                                               ; preds = %l___private_Lean_Meta_Tactic_Grind_EMatchTheorem_0__Lean_Meta_Grind_detectOffsets___lambda__3.exit
  %21 = load i32, ptr %4, align 4, !tbaa !4
  %22 = icmp sgt i32 %21, 1
  br i1 %22, label %23, label %25, !prof !11

23:                                               ; preds = %20
  %24 = add nsw i32 %21, -1
  store i32 %24, ptr %4, align 4, !tbaa !4
  br label %lean_dec.exit13

25:                                               ; preds = %20
  %.not.i = icmp eq i32 %21, 0
  br i1 %.not.i, label %lean_dec.exit13, label %26

26:                                               ; preds = %25
  tail call void @lean_dec_ref_cold(ptr noundef nonnull %4) #9
  br label %lean_dec.exit13

lean_dec.exit13:                                  ; preds = %26, %25, %23, %l___private_Lean_Meta_Tactic_Grind_EMatchTheorem_0__Lean_Meta_Grind_detectOffsets___lambda__3.exit
  %27 = ptrtoint ptr %3 to i64
  %28 = and i64 %27, 1
  %.not20 = icmp eq i64 %28, 0
  br i1 %.not20, label %29, label %lean_dec.exit12

29:                                               ; preds = %lean_dec.exit13
  %30 = load i32, ptr %3, align 4, !tbaa !4
  %31 = icmp sgt i32 %30, 1
  br i1 %31, label %32, label %34, !prof !11

32:                                               ; preds = %29
  %33 = add nsw i32 %30, -1
  store i32 %33, ptr %3, align 4, !tbaa !4
  br label %lean_dec.exit12

34:                                               ; preds = %29
  %.not.i14 = icmp eq i32 %30, 0
  br i1 %.not.i14, label %lean_dec.exit12, label %35

35:                                               ; preds = %34
  tail call void @lean_dec_ref_cold(ptr noundef nonnull %3) #9
  br label %lean_dec.exit12

lean_dec.exit12:                                  ; preds = %35, %34, %32, %lean_dec.exit13
  %36 = ptrtoint ptr %2 to i64
  %37 = and i64 %36, 1
  %.not21 = icmp eq i64 %37, 0
  br i1 %.not21, label %38, label %lean_dec.exit11

38:                                               ; preds = %lean_dec.exit12
  %39 = load i32, ptr %2, align 4, !tbaa !4
  %40 = icmp sgt i32 %39, 1
  br i1 %40, label %41, label %43, !prof !11

41:                                               ; preds = %38
  %42 = add nsw i32 %39, -1
  store i32 %42, ptr %2, align 4, !tbaa !4
  br label %lean_dec.exit11

43:                                               ; preds = %38
  %.not.i16 = icmp eq i32 %39, 0
  br i1 %.not.i16, label %lean_dec.exit11, label %44

44:                                               ; preds = %43
  tail call void @lean_dec_ref_cold(ptr noundef nonnull %2) #9
  br label %lean_dec.exit11

lean_dec.exit11:                                  ; preds = %44, %43, %41, %lean_dec.exit12
  %45 = ptrtoint ptr %1 to i64
  %46 = and i64 %45, 1
  %.not22 = icmp eq i64 %46, 0
  br i1 %.not22, label %47, label %lean_dec.exit

47:                                               ; preds = %lean_dec.exit11
  %48 = load i32, ptr %1, align 4, !tbaa !4
  %49 = icmp sgt i32 %48, 1
  br i1 %49, label %50, label %52, !prof !11

50:                                               ; preds = %47
  %51 = add nsw i32 %48, -1
  store i32 %51, ptr %1, align 4, !tbaa !4
  br label %lean_dec.exit

52:                                               ; preds = %47
  %.not.i18 = icmp eq i32 %48, 0
  br i1 %.not.i18, label %lean_dec.exit, label %53

53:                                               ; preds = %52
  tail call void @lean_dec_ref_cold(ptr noundef nonnull %1) #9
  br label %lean_dec.exit

lean_dec.exit:                                    ; preds = %53, %52, %50, %lean_dec.exit11
  ret ptr %12
}